Certificate:
    Data:
        Version: 1 (0x0)
        Serial Number: 1 (0x1)
        Signature Algorithm: sha1WithRSAEncryption
        Issuer: C=DE, ST=BW, L=Reutlingen, O=Source Fellows GmbH/emailAddress=webmaster@example.private, CN=test.example.private
        Validity
            Not Before: Jul  9 04:15:47 2020 GMT
            Not After : Jul  9 04:15:47 2021 GMT
        Subject: C=DE, ST=BW, L=Reutlingen, O=Source Fellows GmbH, CN=test.example.private/emailAddress=user@example.private
        Subject Public Key Info:
            Public Key Algorithm: rsaEncryption
                RSA Public-Key: (2048 bit)
                Modulus:
                    00:e3:a9:b6:c5:35:06:6d:12:ee:e7:ee:60:89:49:
                    2a:ac:b2:be:3d:f7:c5:4d:55:08:fc:80:43:aa:fd:
                    05:6c:43:94:a5:02:c9:1f:fc:70:c4:44:85:5a:b8:
                    f9:95:f8:8a:5c:2e:12:55:43:23:f2:d0:34:c3:a4:
                    41:89:14:a9:d1:19:d4:0d:d0:58:87:38:9f:6c:1d:
                    89:2d:23:60:8f:9e:af:f4:5a:f0:d0:a4:fd:4a:49:
                    9b:19:df:97:20:db:80:7b:ee:f2:ba:e7:9a:b4:3c:
                    48:74:9c:57:61:0b:4e:ee:eb:53:5d:ca:3d:9e:f3:
                    d2:d5:1a:f7:7a:34:1d:09:73:44:1c:af:3d:31:72:
                    90:e9:43:0b:b3:c9:30:58:21:df:27:5b:39:42:85:
                    f1:ec:d9:1c:89:38:64:92:d6:da:f9:22:c1:e9:b5:
                    22:bf:3a:32:10:f9:e3:e6:b3:73:1d:d2:7e:a9:a6:
                    27:86:83:8c:7e:9d:4f:39:d0:53:45:0b:f7:89:8b:
                    f2:8c:43:44:42:a9:4a:81:83:60:bb:1f:63:f5:75:
                    fa:73:3b:85:c9:62:7d:1d:8a:61:4c:3c:f9:23:a3:
                    3d:97:78:6f:6d:13:db:88:79:fb:89:0b:3e:a6:50:
                    b8:72:9a:c8:d3:7b:d2:ec:6c:15:3d:ab:f7:8b:c8:
                    50:9b
                Exponent: 65537 (0x10001)
    Signature Algorithm: sha1WithRSAEncryption
         95:b9:66:f0:95:05:82:2c:9b:f6:85:ea:68:7c:ae:18:b5:d1:
         12:10:22:2f:2f:1f:5f:d8:15:b6:b3:87:4a:dc:b1:1c:1d:c3:
         8c:80:2f:cb:d2:bd:36:35:53:27:20:c0:b8:5f:58:92:8e:60:
         2a:01:f1:08:38:d0:97:6f:4f:a1:57:17:e7:b9:fc:e1:67:7a:
         97:1b:b3:e1:36:26:06:b2:32:9d:5a:12:4b:2d:b7:0b:8b:c8:
         09:bc:5c:b1:8f:f8:42:24:97:10:6d:6a:eb:82:99:0a:bf:e8:
         fe:9c:1d:52:f2:2d:78:18:a4:9f:33:27:88:54:86:09:11:0e:
         fd:d5:5c:0d:65:c4:78:bd:cc:2f:34:59:e0:13:e8:02:ed:98:
         c4:9e:7f:5e:f7:9b:18:d1:c6:76:eb:1b:dc:76:6a:a6:ab:f3:
         b5:8f:b5:0a:ad:cf:07:d5:cf:6c:69:ae:0c:f5:dc:f2:b2:11:
         2b:b2:b6:a5:b5:63:6b:1f:0d:7b:cd:07:81:59:40:5e:12:c9:
         41:73:cf:08:87:3c:ab:38:51:27:c2:ad:c6:57:20:dc:bd:fe:
         cf:ea:b5:37:29:be:c1:f4:9b:61:ad:a3:f8:5c:d7:7b:65:2e:
         80:f9:6b:dd:42:a8:62:ae:52:0d:95:f7:67:04:10:b9:97:24:
         48:33:fb:22
-----BEGIN CERTIFICATE-----
MIIDnTCCAoUCAQEwDQYJKoZIhvcNAQEFBQAwgZYxCzAJBgNVBAYTAkRFMQswCQYD
VQQIDAJCVzETMBEGA1UEBwwKUmV1dGxpbmdlbjEcMBoGA1UECgwTU291cmNlIEZl
bGxvd3MgR21iSDEoMCYGCSqGSIb3DQEJARYZd2VibWFzdGVyQGV4YW1wbGUucHJp
dmF0ZTEdMBsGA1UEAwwUdGVzdC5leGFtcGxlLnByaXZhdGUwHhcNMjAwNzA5MDQx
NTQ3WhcNMjEwNzA5MDQxNTQ3WjCBkTELMAkGA1UEBhMCREUxCzAJBgNVBAgMAkJX
MRMwEQYDVQQHDApSZXV0bGluZ2VuMRwwGgYDVQQKDBNTb3VyY2UgRmVsbG93cyBH
bWJIMR0wGwYDVQQDDBR0ZXN0LmV4YW1wbGUucHJpdmF0ZTEjMCEGCSqGSIb3DQEJ
ARYUdXNlckBleGFtcGxlLnByaXZhdGUwggEiMA0GCSqGSIb3DQEBAQUAA4IBDwAw
ggEKAoIBAQDjqbbFNQZtEu7n7mCJSSqssr4998VNVQj8gEOq/QVsQ5SlAskf/HDE
RIVauPmV+IpcLhJVQyPy0DTDpEGJFKnRGdQN0FiHOJ9sHYktI2CPnq/0WvDQpP1K
SZsZ35cg24B77vK655q0PEh0nFdhC07u61Ndyj2e89LVGvd6NB0Jc0Qcrz0xcpDp
QwuzyTBYId8nWzlChfHs2RyJOGSS1tr5IsHptSK/OjIQ+ePms3Md0n6ppieGg4x+
nU850FNFC/eJi/KMQ0RCqUqBg2C7H2P1dfpzO4XJYn0dimFMPPkjoz2XeG9tE9uI
efuJCz6mULhymsjTe9LsbBU9q/eLyFCbAgMBAAEwDQYJKoZIhvcNAQEFBQADggEB
AJW5ZvCVBYIsm/aF6mh8rhi10RIQIi8vH1/YFbazh0rcsRwdw4yAL8vSvTY1Uycg
wLhfWJKOYCoB8Qg40JdvT6FXF+e5/OFnepcbs+E2JgayMp1aEksttwuLyAm8XLGP
+EIklxBtauuCmQq/6P6cHVLyLXgYpJ8zJ4hUhgkRDv3VXA1lxHi9zC80WeAT6ALt
mMSef173mxjRxnbrG9x2aqar87WPtQqtzwfVz2xprgz13PKyESuytqW1Y2sfDXvN
B4FZQF4SyUFzzwiHPKs4USfCrcZXINy9/s/qtTcpvsH0m2Gto/hc13tlLoD5a91C
qGKuUg2V92cEELmXJEgz+yI=
-----END CERTIFICATE-----
